; ModuleID = '50/2127.c'
source_filename = "50/2127.c"
target datalayout = "e-m:e-p270:32:32-p271:32:32-p272:64:64-i64:64-f80:128-n8:16:32:64-S128"
target triple = "x86_64-pc-linux-gnu"

@__const.main.days = private unnamed_addr constant [13 x i32] [i32 0, i32 31, i32 28, i32 31, i32 30, i32 31, i32 30, i32 31, i32 31, i32 30, i32 31, i32 30, i32 31], align 16
@.str = private unnamed_addr constant [3 x i8] c"%d\00", align 1
@.str.1 = private unnamed_addr constant [3 x i8] c"1\0A\00", align 1
@.str.2 = private unnamed_addr constant [4 x i8] c"%d\0A\00", align 1

; Function Attrs: noinline nounwind uwtable
define dso_local i32 @main() #0 {
  %1 = alloca i32, align 4
  %2 = alloca [13 x i32], align 16
  %3 = alloca i32, align 4
  %4 = alloca i32, align 4
  %5 = alloca i32, align 4
  store i32 0, i32* %1, align 4
  %6 = bitcast [13 x i32]* %2 to i8*
  call void @llvm.memcpy.p0i8.p0i8.i64(i8* align 16 %6, i8* align 16 bitcast ([13 x i32]* @__const.main.days to i8*), i64 52, i1 false)
  store i32 12, i32* %4, align 4
  %7 = call i32 (i8*, ...) @__isoc99_scanf(i8* getelementptr inbounds ([3 x i8], [3 x i8]* @.str, i64 0, i64 0), i32* %5)
  %8 = load i32, i32* %5, align 4
  %9 = icmp eq i32 %8, 7
  br i1 %9, label %10, label %12

10:                                               ; preds = %0
  %11 = call i32 (i8*, ...) @printf(i8* getelementptr inbounds ([3 x i8], [3 x i8]* @.str.1, i64 0, i64 0))
  br label %12

12:                                               ; preds = %10, %0
  store i32 1, i32* %3, align 4
  br label %13

13:                                               ; preds = %51, %12
  %14 = load i32, i32* %3, align 4
  %15 = icmp sle i32 %14, 11
  br i1 %15, label %16, label %54

16:                                               ; preds = %13
  %17 = load i32, i32* %4, align 4
  %18 = load i32, i32* %3, align 4
  %19 = sext i32 %18 to i64
  %20 = getelementptr inbounds [13 x i32], [13 x i32]* %2, i64 0, i64 %19
  %21 = load i32, i32* %20, align 4
  %22 = add nsw i32 %17, %21
  store i32 %22, i32* %4, align 4
  %23 = load i32, i32* %5, align 4
  %24 = icmp sge i32 %23, 1
  br i1 %24, label %25, label %39

25:                                               ; preds = %16
  %26 = load i32, i32* %5, align 4
  %27 = icmp sle i32 %26, 5
  br i1 %27, label %28, label %39

28:                                               ; preds = %25
  %29 = load i32, i32* %4, align 4
  %30 = srem i32 %29, 7
  %31 = load i32, i32* %5, align 4
  %32 = sub nsw i32 5, %31
  %33 = icmp eq i32 %30, %32
  br i1 %33, label %34, label %38

34:                                               ; preds = %28
  %35 = load i32, i32* %3, align 4
  %36 = add nsw i32 %35, 1
  %37 = call i32 (i8*, ...) @printf(i8* getelementptr inbounds ([4 x i8], [4 x i8]* @.str.2, i64 0, i64 0), i32 %36)
  br label %38

38:                                               ; preds = %34, %28
  br label %50

39:                                               ; preds = %25, %16
  %40 = load i32, i32* %4, align 4
  %41 = srem i32 %40, 7
  %42 = load i32, i32* %5, align 4
  %43 = sub nsw i32 12, %42
  %44 = icmp eq i32 %41, %43
  br i1 %44, label %45, label %49

45:                                               ; preds = %39
  %46 = load i32, i32* %3, align 4
  %47 = add nsw i32 %46, 1
  %48 = call i32 (i8*, ...) @printf(i8* getelementptr inbounds ([4 x i8], [4 x i8]* @.str.2, i64 0, i64 0), i32 %47)
  br label %49

49:                                               ; preds = %45, %39
  br label %50

50:                                               ; preds = %49, %38
  br label %51

51:                                               ; preds = %50
  %52 = load i32, i32* %3, align 4
  %53 = add nsw i32 %52, 1
  store i32 %53, i32* %3, align 4
  br label %13

54:                                               ; preds = %13
  ret i32 0
}

; Function Attrs: argmemonly nounwind willreturn
declare void @llvm.memcpy.p0i8.p0i8.i64(i8* noalias nocapture writeonly, i8* noalias nocapture readonly, i64, i1 immarg) #1

declare dso_local i32 @__isoc99_scanf(i8*, ...) #2

declare dso_local i32 @printf(i8*, ...) #2


!llvm.module.flags = !{!0}
!llvm.ident = !{!1}

!0 = !{i32 1, !"wchar_size", i32 4}
!1 = !{!"clang version 10.0.0-4ubuntu1 "}
